(lp0
S'China'
p1
aS'Taiwan'
p2
aS'India'
p3
aS'United States'
p4
aS'Indonesia'
p5
aS'Brazil'
p6
aS'Pakistan'
p7
aS'Nigeria'
p8
aS'Bangladesh'
p9
aS'Russia'
p10
aS'Mexico'
p11
aS'Japan'
p12
aS'Ethiopia'
p13
aS'Philippines'
p14
aS'Viet Nam'
p15
aS'Egypt'
p16
aS'DR Congo'
p17
aS'Iran'
p18
aS'Germany'
p19
aS'Turkey'
p20
aS'Thailand'
p21
aS'United Kingdom'
p22
aS'France'
p23
aS'Italy'
p24
aS'Tanzania'
p25
aS'South Africa'
p26
aS'Myanmar'
p27
aS'South Korea'
p28
aS'Colombia'
p29
aS'Kenya'
p30
aS'Spain'
p31
aS'Ukraine'
p32
aS'Argentina'
p33
aS'Sudan'
p34
aS'Uganda'
p35
aS'Algeria'
p36
aS'Iraq'
p37
aS'Poland'
p38
aS'Canada'
p39
aS'Morocco'
p40
aS'Afghanistan'
p41
aS'Saudi Arabia'
p42
aS'Peru'
p43
aS'Venezuela'
p44
aS'Malaysia'
p45
aS'Uzbekistan'
p46
aS'Mozambique'
p47
aS'Nepal'
p48
aS'Ghana'
p49
aS'Yemen'
p50
aS'Angola'
p51
aS'Madagascar'
p52
aS'North Korea'
p53
aS'Australia'
p54
aS'Cameroon'
p55
aS"C\xc3\xb4te d'Ivoire"
p56
aS'Niger'
p57
aS'Sri Lanka'
p58
aS'Romania'
p59
aS'Burkina Faso'
p60
aS'Syria'
p61
aS'Mali'
p62
aS'Chile'
p63
aS'Malawi'
p64
aS'Kazakhstan'
p65
aS'Zambia'
p66
aS'Netherlands'
p67
aS'Guatemala'
p68
aS'Ecuador'
p69
aS'Zimbabwe'
p70
aS'Cambodia'
p71
aS'Senegal'
p72
aS'Chad'
p73
aS'Guinea'
p74
aS'South Sudan'
p75
aS'Rwanda'
p76
aS'Burundi'
p77
aS'Tunisia'
p78
aS'Benin'
p79
aS'Belgium'
p80
aS'Somalia'
p81
aS'Cuba'
p82
aS'Bolivia'
p83
aS'Haiti'
p84
aS'Greece'
p85
aS'Dominican Republic'
p86
aS'Czech Republic'
p87
aS'Portugal'
p88
aS'Azerbaijan'
p89
aS'Sweden'
p90
aS'Hungary'
p91
aS'Belarus'
p92
aS'United Arab Emirates'
p93
aS'Tajikistan'
p94
aS'Serbia'
p95
aS'Austria'
p96
aS'Switzerland'
p97
aS'Israel'
p98
aS'Honduras'
p99
aS'Papua New Guinea'
p100
aS'Jordan'
p101
aS'Togo'
p102
aS'Bulgaria'
p103
aS'Laos'
p104
aS'Paraguay'
p105
aS'Sierra Leone'
p106
aS'Libya'
p107
aS'Nicaragua'
p108
aS'El Salvador'
p109
aS'Kyrgyzstan'
p110
aS'Lebanon'
p111
aS'Singapore'
p112
aS'Denmark'
p113
aS'Finland'
p114
aS'Turkmenistan'
p115
aS'Eritrea'
p116
aS'Slovakia'
p117
aS'Norway'
p118
aS'Central African Republic'
p119
aS'State of Palestine'
p120
aS'Costa Rica'
p121
aS'Congo'
p122
aS'Ireland'
p123
aS'Oman'
p124
aS'Liberia'
p125
aS'New Zealand'
p126
aS'Mauritania'
p127
aS'Croatia'
p128
aS'Kuwait'
p129
aS'Moldova'
p130
aS'Panama'
p131
aS'Georgia'
p132
aS'Bosnia and Herzegovina'
p133
aS'Uruguay'
p134
aS'Mongolia'
p135
aS'Armenia'
p136
aS'Albania'
p137
aS'Lithuania'
p138
aS'Jamaica'
p139
aS'Namibia'
p140
aS'Botswana'
p141
aS'Qatar'
p142
aS'Lesotho'
p143
aS'Gambia'
p144
aS'TFYR Macedonia'
p145
aS'Slovenia'
p146
aS'Latvia'
p147
aS'Guinea-Bissau'
p148
aS'Gabon'
p149
aS'Bahrain'
p150
aS'Trinidad and Tobago'
p151
aS'Swaziland'
p152
aS'Estonia'
p153
aS'Mauritius'
p154
aS'Timor-Leste'
p155
aS'Cyprus'
p156
aS'Djibouti'
p157
aS'Fiji'
p158
aS'Equatorial Guinea'
p159
aS'Comoros'
p160
aS'Bhutan'
p161
aS'Guyana'
p162
aS'Montenegro'
p163
aS'Solomon Islands'
p164
aS'Luxembourg'
p165
aS'Suriname'
p166
aS'Cabo Verde'
p167
aS'Brunei '
p168
aS'Malta'
p169
aS'Bahamas'
p170
aS'Maldives'
p171
aS'Belize'
p172
aS'Iceland'
p173
aS'Barbados'
p174
aS'Vanuatu'
p175
aS'Sao Tome and Principe'
p176
aS'Samoa'
p177
aS'Saint Lucia'
p178
aS'Kiribati'
p179
aS'St. Vincent & Grenadines'
p180
aS'Grenada'
p181
aS'Tonga'
p182
aS'Micronesia'
p183
aS'Seychelles'
p184
aS'Antigua and Barbuda'
p185
aS'Dominica'
p186
aS'Andorra'
p187
aS'Saint Kitts and Nevis'
p188
aS'Marshall Islands'
p189
aS'Liechtenstein'
p190
aS'Monaco'
p191
aS'San Marino'
p192
aS'Palau'
p193
aS'Nauru'
p194
aS'Tuvalu'
p195
aS'Holy See'
p196
a.